; ModuleID = '38/621.c'
source_filename = "38/621.c"
target datalayout = "e-m:e-p270:32:32-p271:32:32-p272:64:64-i64:64-f80:128-n8:16:32:64-S128"
target triple = "x86_64-pc-linux-gnu"

@.str = private unnamed_addr constant [3 x i8] c"%d\00", align 1
@.str.1 = private unnamed_addr constant [4 x i8] c"%lf\00", align 1
@.str.2 = private unnamed_addr constant [6 x i8] c"%.5f\0A\00", align 1

; Function Attrs: noinline nounwind uwtable
define dso_local i32 @main() #0 {
  %1 = alloca i32, align 4
  %2 = alloca i32, align 4
  %3 = alloca i32, align 4
  %4 = alloca i32, align 4
  %5 = alloca [100 x double], align 16
  %6 = alloca [100 x double], align 16
  %7 = alloca [100 x [1000 x double]], align 16
  %8 = alloca [100 x double], align 16
  %9 = alloca [100 x double], align 16
  %10 = alloca [100 x double], align 16
  store i32 0, i32* %1, align 4
  %11 = call i32 (i8*, ...) @__isoc99_scanf(i8* getelementptr inbounds ([3 x i8], [3 x i8]* @.str, i64 0, i64 0), i32* %2)
  store i32 0, i32* %3, align 4
  br label %12

12:                                               ; preds = %132, %0
  %13 = load i32, i32* %3, align 4
  %14 = load i32, i32* %2, align 4
  %15 = icmp slt i32 %13, %14
  br i1 %15, label %16, label %135

16:                                               ; preds = %12
  %17 = load i32, i32* %3, align 4
  %18 = sext i32 %17 to i64
  %19 = getelementptr inbounds [100 x double], [100 x double]* %5, i64 0, i64 %18
  %20 = call i32 (i8*, ...) @__isoc99_scanf(i8* getelementptr inbounds ([4 x i8], [4 x i8]* @.str.1, i64 0, i64 0), double* %19)
  %21 = load i32, i32* %3, align 4
  %22 = sext i32 %21 to i64
  %23 = getelementptr inbounds [100 x double], [100 x double]* %9, i64 0, i64 %22
  store double 0.000000e+00, double* %23, align 8
  %24 = load i32, i32* %3, align 4
  %25 = sext i32 %24 to i64
  %26 = getelementptr inbounds [100 x double], [100 x double]* %10, i64 0, i64 %25
  store double 0.000000e+00, double* %26, align 8
  store i32 0, i32* %4, align 4
  br label %27

27:                                               ; preds = %55, %16
  %28 = load i32, i32* %4, align 4
  %29 = sitofp i32 %28 to double
  %30 = load i32, i32* %3, align 4
  %31 = sext i32 %30 to i64
  %32 = getelementptr inbounds [100 x double], [100 x double]* %5, i64 0, i64 %31
  %33 = load double, double* %32, align 8
  %34 = fcmp olt double %29, %33
  br i1 %34, label %35, label %58

35:                                               ; preds = %27
  %36 = load i32, i32* %3, align 4
  %37 = sext i32 %36 to i64
  %38 = getelementptr inbounds [100 x [1000 x double]], [100 x [1000 x double]]* %7, i64 0, i64 %37
  %39 = load i32, i32* %4, align 4
  %40 = sext i32 %39 to i64
  %41 = getelementptr inbounds [1000 x double], [1000 x double]* %38, i64 0, i64 %40
  %42 = call i32 (i8*, ...) @__isoc99_scanf(i8* getelementptr inbounds ([4 x i8], [4 x i8]* @.str.1, i64 0, i64 0), double* %41)
  %43 = load i32, i32* %3, align 4
  %44 = sext i32 %43 to i64
  %45 = getelementptr inbounds [100 x [1000 x double]], [100 x [1000 x double]]* %7, i64 0, i64 %44
  %46 = load i32, i32* %4, align 4
  %47 = sext i32 %46 to i64
  %48 = getelementptr inbounds [1000 x double], [1000 x double]* %45, i64 0, i64 %47
  %49 = load double, double* %48, align 8
  %50 = load i32, i32* %3, align 4
  %51 = sext i32 %50 to i64
  %52 = getelementptr inbounds [100 x double], [100 x double]* %9, i64 0, i64 %51
  %53 = load double, double* %52, align 8
  %54 = fadd double %53, %49
  store double %54, double* %52, align 8
  br label %55

55:                                               ; preds = %35
  %56 = load i32, i32* %4, align 4
  %57 = add nsw i32 %56, 1
  store i32 %57, i32* %4, align 4
  br label %27

58:                                               ; preds = %27
  %59 = load i32, i32* %3, align 4
  %60 = sext i32 %59 to i64
  %61 = getelementptr inbounds [100 x double], [100 x double]* %9, i64 0, i64 %60
  %62 = load double, double* %61, align 8
  %63 = load i32, i32* %3, align 4
  %64 = sext i32 %63 to i64
  %65 = getelementptr inbounds [100 x double], [100 x double]* %5, i64 0, i64 %64
  %66 = load double, double* %65, align 8
  %67 = fdiv double %62, %66
  %68 = load i32, i32* %3, align 4
  %69 = sext i32 %68 to i64
  %70 = getelementptr inbounds [100 x double], [100 x double]* %8, i64 0, i64 %69
  store double %67, double* %70, align 8
  store i32 0, i32* %4, align 4
  br label %71

71:                                               ; preds = %110, %58
  %72 = load i32, i32* %4, align 4
  %73 = sitofp i32 %72 to double
  %74 = load i32, i32* %3, align 4
  %75 = sext i32 %74 to i64
  %76 = getelementptr inbounds [100 x double], [100 x double]* %5, i64 0, i64 %75
  %77 = load double, double* %76, align 8
  %78 = fcmp olt double %73, %77
  br i1 %78, label %79, label %113

79:                                               ; preds = %71
  %80 = load i32, i32* %3, align 4
  %81 = sext i32 %80 to i64
  %82 = getelementptr inbounds [100 x [1000 x double]], [100 x [1000 x double]]* %7, i64 0, i64 %81
  %83 = load i32, i32* %4, align 4
  %84 = sext i32 %83 to i64
  %85 = getelementptr inbounds [1000 x double], [1000 x double]* %82, i64 0, i64 %84
  %86 = load double, double* %85, align 8
  %87 = load i32, i32* %3, align 4
  %88 = sext i32 %87 to i64
  %89 = getelementptr inbounds [100 x double], [100 x double]* %8, i64 0, i64 %88
  %90 = load double, double* %89, align 8
  %91 = fsub double %86, %90
  %92 = load i32, i32* %3, align 4
  %93 = sext i32 %92 to i64
  %94 = getelementptr inbounds [100 x [1000 x double]], [100 x [1000 x double]]* %7, i64 0, i64 %93
  %95 = load i32, i32* %4, align 4
  %96 = sext i32 %95 to i64
  %97 = getelementptr inbounds [1000 x double], [1000 x double]* %94, i64 0, i64 %96
  %98 = load double, double* %97, align 8
  %99 = load i32, i32* %3, align 4
  %100 = sext i32 %99 to i64
  %101 = getelementptr inbounds [100 x double], [100 x double]* %8, i64 0, i64 %100
  %102 = load double, double* %101, align 8
  %103 = fsub double %98, %102
  %104 = fmul double %91, %103
  %105 = load i32, i32* %3, align 4
  %106 = sext i32 %105 to i64
  %107 = getelementptr inbounds [100 x double], [100 x double]* %10, i64 0, i64 %106
  %108 = load double, double* %107, align 8
  %109 = fadd double %108, %104
  store double %109, double* %107, align 8
  br label %110

110:                                              ; preds = %79
  %111 = load i32, i32* %4, align 4
  %112 = add nsw i32 %111, 1
  store i32 %112, i32* %4, align 4
  br label %71

113:                                              ; preds = %71
  %114 = load i32, i32* %3, align 4
  %115 = sext i32 %114 to i64
  %116 = getelementptr inbounds [100 x double], [100 x double]* %10, i64 0, i64 %115
  %117 = load double, double* %116, align 8
  %118 = load i32, i32* %3, align 4
  %119 = sext i32 %118 to i64
  %120 = getelementptr inbounds [100 x double], [100 x double]* %5, i64 0, i64 %119
  %121 = load double, double* %120, align 8
  %122 = fdiv double %117, %121
  %123 = call double @sqrt(double %122) #3
  %124 = load i32, i32* %3, align 4
  %125 = sext i32 %124 to i64
  %126 = getelementptr inbounds [100 x double], [100 x double]* %6, i64 0, i64 %125
  store double %123, double* %126, align 8
  %127 = load i32, i32* %3, align 4
  %128 = sext i32 %127 to i64
  %129 = getelementptr inbounds [100 x double], [100 x double]* %6, i64 0, i64 %128
  %130 = load double, double* %129, align 8
  %131 = call i32 (i8*, ...) @printf(i8* getelementptr inbounds ([6 x i8], [6 x i8]* @.str.2, i64 0, i64 0), double %130)
  br label %132

132:                                              ; preds = %113
  %133 = load i32, i32* %3, align 4
  %134 = add nsw i32 %133, 1
  store i32 %134, i32* %3, align 4
  br label %12

135:                                              ; preds = %12
  ret i32 0
}

declare dso_local i32 @__isoc99_scanf(i8*, ...) #1

; Function Attrs: nounwind
declare dso_local double @sqrt(double) #2

declare dso_local i32 @printf(i8*, ...) #1


!llvm.module.flags = !{!0}
!llvm.ident = !{!1}

!0 = !{i32 1, !"wchar_size", i32 4}
!1 = !{!"clang version 10.0.0-4ubuntu1 "}
