; ModuleID = 'source-C-CXX/37/621.c'
source_filename = "source-C-CXX/37/621.c"
target datalayout = "e-m:e-p270:32:32-p271:32:32-p272:64:64-i64:64-f80:128-n8:16:32:64-S128"
target triple = "x86_64-pc-linux-gnu"

@.str = private unnamed_addr constant [3 x i8] c"%d\00", align 1
@.str.1 = private unnamed_addr constant [4 x i8] c"%lf\00", align 1
@.str.2 = private unnamed_addr constant [6 x i8] c"%.5f\0A\00", align 1

; Function Attrs: nofree nounwind sspstrong uwtable
define dso_local i32 @main() local_unnamed_addr #0 {
  %1 = alloca i32, align 4
  %2 = alloca [100 x double], align 16
  %3 = alloca [100 x [1000 x double]], align 16
  %4 = bitcast i32* %1 to i8*
  call void @llvm.lifetime.start.p0i8(i64 4, i8* nonnull %4) #4
  %5 = call i32 (i8*, ...) @__isoc99_scanf(i8* getelementptr inbounds ([3 x i8], [3 x i8]* @.str, i64 0, i64 0), i32* nonnull %1)
  %6 = bitcast [100 x double]* %2 to i8*
  call void @llvm.lifetime.start.p0i8(i64 800, i8* nonnull %6) #4
  %7 = bitcast [100 x [1000 x double]]* %3 to i8*
  call void @llvm.lifetime.start.p0i8(i64 800000, i8* nonnull %7) #4
  %8 = load i32, i32* %1, align 4, !tbaa !5
  %9 = icmp sgt i32 %8, 0
  br i1 %9, label %10, label %54

10:                                               ; preds = %0, %45
  %11 = phi i64 [ %50, %45 ], [ 0, %0 ]
  %12 = getelementptr inbounds [100 x double], [100 x double]* %2, i64 0, i64 %11
  %13 = call i32 (i8*, ...) @__isoc99_scanf(i8* getelementptr inbounds ([4 x i8], [4 x i8]* @.str.1, i64 0, i64 0), double* nonnull %12)
  %14 = load double, double* %12, align 8, !tbaa !9
  %15 = fcmp ogt double %14, 0.000000e+00
  br i1 %15, label %16, label %28

16:                                               ; preds = %10, %16
  %17 = phi double [ %22, %16 ], [ 0.000000e+00, %10 ]
  %18 = phi i64 [ %23, %16 ], [ 0, %10 ]
  %19 = getelementptr inbounds [100 x [1000 x double]], [100 x [1000 x double]]* %3, i64 0, i64 %11, i64 %18
  %20 = call i32 (i8*, ...) @__isoc99_scanf(i8* getelementptr inbounds ([4 x i8], [4 x i8]* @.str.1, i64 0, i64 0), double* nonnull %19)
  %21 = load double, double* %19, align 8, !tbaa !9
  %22 = fadd double %21, %17
  %23 = add nuw i64 %18, 1
  %24 = trunc i64 %23 to i32
  %25 = sitofp i32 %24 to double
  %26 = load double, double* %12, align 8, !tbaa !9
  %27 = fcmp ogt double %26, %25
  br i1 %27, label %16, label %28, !llvm.loop !11

28:                                               ; preds = %16, %10
  %29 = phi double [ 0.000000e+00, %10 ], [ %22, %16 ]
  %30 = phi double [ %14, %10 ], [ %26, %16 ]
  %31 = fdiv double %29, %30
  %32 = fcmp ogt double %30, 0.000000e+00
  br i1 %32, label %33, label %45

33:                                               ; preds = %28, %33
  %34 = phi i64 [ %41, %33 ], [ 0, %28 ]
  %35 = phi double [ %40, %33 ], [ 0.000000e+00, %28 ]
  %36 = getelementptr inbounds [100 x [1000 x double]], [100 x [1000 x double]]* %3, i64 0, i64 %11, i64 %34
  %37 = load double, double* %36, align 8, !tbaa !9
  %38 = fsub double %37, %31
  %39 = fmul double %38, %38
  %40 = fadd double %35, %39
  %41 = add nuw i64 %34, 1
  %42 = trunc i64 %41 to i32
  %43 = sitofp i32 %42 to double
  %44 = fcmp ogt double %30, %43
  br i1 %44, label %33, label %45, !llvm.loop !13

45:                                               ; preds = %33, %28
  %46 = phi double [ 0.000000e+00, %28 ], [ %40, %33 ]
  %47 = fdiv double %46, %30
  %48 = call double @sqrt(double %47) #4
  %49 = call i32 (i8*, ...) @printf(i8* nonnull dereferenceable(1) getelementptr inbounds ([6 x i8], [6 x i8]* @.str.2, i64 0, i64 0), double %48)
  %50 = add nuw nsw i64 %11, 1
  %51 = load i32, i32* %1, align 4, !tbaa !5
  %52 = sext i32 %51 to i64
  %53 = icmp slt i64 %50, %52
  br i1 %53, label %10, label %54, !llvm.loop !14

54:                                               ; preds = %45, %0
  call void @llvm.lifetime.end.p0i8(i64 800000, i8* nonnull %7) #4
  call void @llvm.lifetime.end.p0i8(i64 800, i8* nonnull %6) #4
  call void @llvm.lifetime.end.p0i8(i64 4, i8* nonnull %4) #4
  ret i32 0
}

; Function Attrs: argmemonly mustprogress nofree nosync nounwind willreturn
declare void @llvm.lifetime.start.p0i8(i64 immarg, i8* nocapture) #1

; Function Attrs: nofree nounwind
declare noundef i32 @__isoc99_scanf(i8* nocapture noundef readonly, ...) local_unnamed_addr #2

; Function Attrs: mustprogress nofree nounwind willreturn
declare double @sqrt(double) local_unnamed_addr #3

; Function Attrs: nofree nounwind
declare noundef i32 @printf(i8* nocapture noundef readonly, ...) local_unnamed_addr #2

; Function Attrs: argmemonly mustprogress nofree nosync nounwind willreturn
declare void @llvm.lifetime.end.p0i8(i64 immarg, i8* nocapture) #1


!llvm.module.flags = !{!0, !1, !2, !3}
!llvm.ident = !{!4}

!0 = !{i32 1, !"wchar_size", i32 4}
!1 = !{i32 7, !"PIC Level", i32 2}
!2 = !{i32 7, !"PIE Level", i32 2}
!3 = !{i32 7, !"uwtable", i32 1}
!4 = !{!"clang version 13.0.0"}
!5 = !{!6, !6, i64 0}
!6 = !{!"int", !7, i64 0}
!7 = !{!"omnipotent char", !8, i64 0}
!8 = !{!"Simple C/C++ TBAA"}
!9 = !{!10, !10, i64 0}
!10 = !{!"double", !7, i64 0}
!11 = distinct !{!11, !12}
!12 = !{!"llvm.loop.mustprogress"}
!13 = distinct !{!13, !12}
!14 = distinct !{!14, !12}
